; Function Attrs: mustprogress uwtable
define noundef nonnull align 8 dereferenceable(57) ptr @_ZN32pxrInternal_v0_24__pxrReserved__14SdfPathPattern23AppendStretchIfPossibleEv(ptr noundef nonnull returned align 8 dereferenceable(57) %0) local_unnamed_addr #1 align 2 personality ptr @__gxx_personality_v0 {
  %2 = alloca %"class.pxrInternal_v0_24__pxrReserved__::SdfPredicateExpression", align 8
  %3 = alloca %"class.pxrInternal_v0_24__pxrReserved__::SdfPredicateExpression", align 8
  %4 = alloca %"class.std::__cxx11::basic_string", align 8
  %5 = alloca %"class.std::__cxx11::basic_string", align 8
  call void @_ZNSt7__cxx1112basic_stringIcSt11char_traitsIcESaIcEEC1Ev(ptr noundef nonnull align 8 dereferenceable(32) %4) #17
  call void @llvm.lifetime.start.p0(i64 80, ptr nonnull %3)
  %6 = getelementptr inbounds nuw i8, ptr %3, i64 48
  call void @llvm.memset.p0.i64(ptr noundef nonnull align 8 dereferenceable(80) %3, i8 0, i64 80, i1 false)
  call void @_ZNSt7__cxx1112basic_stringIcSt11char_traitsIcESaIcEEC1Ev(ptr noundef nonnull align 8 dereferenceable(32) %6) #17
  %7 = invoke noundef zeroext i1 @_ZNK32pxrInternal_v0_24__pxrReserved__14SdfPathPattern14CanAppendChildERKNSt7__cxx1112basic_stringIcSt11char_traitsIcESaIcEEERKNS_22SdfPredicateExpressionEPS6_(ptr noundef nonnull align 8 dereferenceable(57) %0, ptr noundef nonnull align 8 dereferenceable(32) %4, ptr noundef nonnull align 8 dereferenceable(80) %3, ptr noundef null)
          to label %8 unwind label %.body

8:                                                ; preds = %1
  call void @_ZNSt7__cxx1112basic_stringIcSt11char_traitsIcESaIcEED1Ev(ptr noundef nonnull align 8 dereferenceable(32) %6) #17
  %9 = getelementptr inbounds nuw i8, ptr %3, i64 24
  call void @_ZNSt6vectorIN32pxrInternal_v0_24__pxrReserved__22SdfPredicateExpression6FnCallESaIS2_EED2Ev(ptr noundef nonnull align 8 dereferenceable(24) %9) #17
  %10 = load ptr, ptr %3, align 8
  %.not.i.i.i.i.i = icmp eq ptr %10, null
  br i1 %.not.i.i.i.i.i, label %18, label %11

11:                                               ; preds = %8
  %12 = getelementptr inbounds nuw i8, ptr %3, i64 16
  %13 = load ptr, ptr %12, align 8
  %14 = ptrtoint ptr %13 to i64
  %15 = ptrtoint ptr %10 to i64
  %16 = sub i64 %14, %15
  call void @_ZdlPvm(ptr noundef nonnull %10, i64 noundef %16) #19
  br label %18

.body:                                            ; preds = %1
  %17 = landingpad { ptr, i32 }
          cleanup
  br label %34

18:                                               ; preds = %11, %8
  call void @llvm.lifetime.end.p0(i64 80, ptr nonnull %3)
  call void @_ZNSt7__cxx1112basic_stringIcSt11char_traitsIcESaIcEED1Ev(ptr noundef nonnull align 8 dereferenceable(32) %4) #17
  br i1 %7, label %19, label %33

19:                                               ; preds = %18
  call void @_ZNSt7__cxx1112basic_stringIcSt11char_traitsIcESaIcEEC1Ev(ptr noundef nonnull align 8 dereferenceable(32) %5) #17
  call void @llvm.lifetime.start.p0(i64 80, ptr nonnull %2)
  %20 = getelementptr inbounds nuw i8, ptr %2, i64 48
  call void @llvm.memset.p0.i64(ptr noundef nonnull align 8 dereferenceable(80) %2, i8 0, i64 80, i1 false)
  call void @_ZNSt7__cxx1112basic_stringIcSt11char_traitsIcESaIcEEC1Ev(ptr noundef nonnull align 8 dereferenceable(32) %20) #17
  %21 = invoke noundef nonnull align 8 dereferenceable(57) ptr @_ZN32pxrInternal_v0_24__pxrReserved__14SdfPathPattern11AppendChildERKNSt7__cxx1112basic_stringIcSt11char_traitsIcESaIcEEEONS_22SdfPredicateExpressionE(ptr noundef nonnull align 8 dereferenceable(57) %0, ptr noundef nonnull align 8 dereferenceable(32) %5, ptr noundef nonnull align 8 dereferenceable(80) %2)
          to label %22 unwind label %.body5

22:                                               ; preds = %19
  call void @_ZNSt7__cxx1112basic_stringIcSt11char_traitsIcESaIcEED1Ev(ptr noundef nonnull align 8 dereferenceable(32) %20) #17
  %23 = getelementptr inbounds nuw i8, ptr %2, i64 24
  call void @_ZNSt6vectorIN32pxrInternal_v0_24__pxrReserved__22SdfPredicateExpression6FnCallESaIS2_EED2Ev(ptr noundef nonnull align 8 dereferenceable(24) %23) #17
  %24 = load ptr, ptr %2, align 8
  %.not.i.i.i.i.i4 = icmp eq ptr %24, null
  br i1 %.not.i.i.i.i.i4, label %32, label %25

25:                                               ; preds = %22
  %26 = getelementptr inbounds nuw i8, ptr %2, i64 16
  %27 = load ptr, ptr %26, align 8
  %28 = ptrtoint ptr %27 to i64
  %29 = ptrtoint ptr %24 to i64
  %30 = sub i64 %28, %29
  call void @_ZdlPvm(ptr noundef nonnull %24, i64 noundef %30) #19
  br label %32

.body5:                                           ; preds = %19
  %31 = landingpad { ptr, i32 }
          cleanup
  br label %34

32:                                               ; preds = %25, %22
  call void @llvm.lifetime.end.p0(i64 80, ptr nonnull %2)
  call void @_ZNSt7__cxx1112basic_stringIcSt11char_traitsIcESaIcEED1Ev(ptr noundef nonnull align 8 dereferenceable(32) %5) #17
  br label %33

33:                                               ; preds = %32, %18
  ret ptr %0

34:                                               ; preds = %.body5, %.body
  %.sink7 = phi ptr [ %2, %.body5 ], [ %3, %.body ]
  %.sink = phi ptr [ %5, %.body5 ], [ %4, %.body ]
  %.pn = phi { ptr, i32 } [ %31, %.body5 ], [ %17, %.body ]
  call void @_ZN32pxrInternal_v0_24__pxrReserved__22SdfPredicateExpressionD2Ev(ptr noundef nonnull align 8 dereferenceable(80) %.sink7) #17
  call void @_ZNSt7__cxx1112basic_stringIcSt11char_traitsIcESaIcEED1Ev(ptr noundef nonnull align 8 dereferenceable(32) %.sink) #17
  resume { ptr, i32 } %.pn
}